; Function Attrs: mustprogress nounwind uwtable
define void @_ZN32pxrInternal_v0_24__pxrReserved__13Usd_CrateDataD2Ev(ptr noundef nonnull align 8 dereferenceable(32) initializes((0, 8)) %0) unnamed_addr #6 align 2 personality ptr @__gxx_personality_v0 {
  store ptr getelementptr inbounds nuw inrange(-16, 320) (i8, ptr @_ZTVN32pxrInternal_v0_24__pxrReserved__13Usd_CrateDataE, i64 16), ptr %0, align 8
  %2 = getelementptr inbounds nuw i8, ptr %0, i64 24
  %3 = load ptr, ptr %2, align 8
  %.not.i = icmp eq ptr %3, null
  br i1 %.not.i, label %_ZNSt10unique_ptrIN32pxrInternal_v0_24__pxrReserved__17Usd_CrateDataImplESt14default_deleteIS1_EED2Ev.exit, label %_ZNKSt14default_deleteIN32pxrInternal_v0_24__pxrReserved__17Usd_CrateDataImplEEclEPS1_.exit.i

_ZNKSt14default_deleteIN32pxrInternal_v0_24__pxrReserved__17Usd_CrateDataImplEEclEPS1_.exit.i: ; preds = %1
  tail call void @_ZN32pxrInternal_v0_24__pxrReserved__17Usd_CrateDataImplD2Ev(ptr noundef nonnull align 8 dereferenceable(96) %3) #26
  tail call void @_ZdlPvm(ptr noundef nonnull %3, i64 noundef 96) #27
  br label %_ZNSt10unique_ptrIN32pxrInternal_v0_24__pxrReserved__17Usd_CrateDataImplESt14default_deleteIS1_EED2Ev.exit

_ZNSt10unique_ptrIN32pxrInternal_v0_24__pxrReserved__17Usd_CrateDataImplESt14default_deleteIS1_EED2Ev.exit: ; preds = %1, %_ZNKSt14default_deleteIN32pxrInternal_v0_24__pxrReserved__17Usd_CrateDataImplEEclEPS1_.exit.i
  store ptr null, ptr %2, align 8
  tail call void @_ZN32pxrInternal_v0_24__pxrReserved__15SdfAbstractDataD2Ev(ptr noundef nonnull align 8 dereferenceable(24) %0) #26
  ret void
}